(inoumena.state
Profile
p0
(dp1
S'name'
p2
S'box1'
p3
sS'debug_freq'
p4
F125.0
sS'full_screen'
p5
I00
sS'viewport_refresh'
p6
I60
sS'vp_center_x'
p7
F0.0
sS'vp_center_y'
p8
F0.0
sS'kernel_dim'
p9
I1024
sS'viewport_height'
p10
I900
sS'vp_scale'
p11
F1.0
sS'viewport_width'
p12
I900
sb.