(inoumena.state
Profile
p0
(dp1
S'name'
p2
S'box1'
p3
sS'manual_iter'
p4
I00
sS'debug_freq'
p5
F125.0
sS'full_screen'
p6
I00
sS'viewport_refresh'
p7
I60
sS'vp_center_x'
p8
F0.0
sS'vp_center_y'
p9
F0.0
sS'kernel_dim'
p10
I1024
sS'viewport_height'
p11
I900
sS'vp_scale'
p12
F1.0
sS'viewport_width'
p13
I900
sb.