(istate
Profile
p0
(dp1
S'name'
p2
S'box1'
p3
sS'full_screen'
p4
I00
sS'viewport_refresh'
p5
I60
sS'vp_center_x'
p6
F0.0
sS'vp_center_y'
p7
F0.0
sS'viewport_height'
p8
I500
sS'vp_scale'
p9
F1.0
sS'viewport_width'
p10
I500
sb.